target datalayout = "e-m:e-p270:32:32-p271:32:32-p272:64:64-i64:64-i128:128-f80:128-n8:16:32:64-S128"
target triple = "x86_64-pc-linux-gnu"

@.str.1 = private unnamed_addr constant [5 x i8] c"size\00", align 1

; Function Attrs: nounwind uwtable
define internal i64 @poly1305_size() #0 {
  ret i64 16
}

; Function Attrs: nounwind uwtable
define internal i32 @poly1305_get_params(ptr noundef %0) #0 {
  %2 = alloca i32, align 4
  %3 = alloca ptr, align 8
  %4 = alloca ptr, align 8
  %5 = alloca i32, align 4
  store ptr %0, ptr %3, align 8, !tbaa !21
  call void @llvm.lifetime.start.p0(i64 8, ptr %4) #4
  %6 = load ptr, ptr %3, align 8, !tbaa !21
  %7 = call ptr @OSSL_PARAM_locate(ptr noundef %6, ptr noundef @.str.1)
  store ptr %7, ptr %4, align 8, !tbaa !21
  %8 = icmp ne ptr %7, null
  br i1 %8, label %9, label %13

9:                                                ; preds = %1
  %10 = load ptr, ptr %4, align 8, !tbaa !21
  %11 = call i64 @poly1305_size()
  %12 = call i32 @OSSL_PARAM_set_size_t(ptr noundef %10, i64 noundef %11)
  store i32 %12, ptr %2, align 4
  store i32 1, ptr %5, align 4
  br label %14

13:                                               ; preds = %1
  store i32 1, ptr %2, align 4
  store i32 1, ptr %5, align 4
  br label %14

14:                                               ; preds = %13, %9
  call void @llvm.lifetime.end.p0(i64 8, ptr %4) #4
  %15 = load i32, ptr %2, align 4
  ret i32 %15
}